target datalayout = "e-m:e-p270:32:32-p271:32:32-p272:64:64-i64:64-i128:128-f80:128-n8:16:32:64-S128"
target triple = "x86_64-pc-linux-gnu"

%struct.SDL_WaylandDataSource = type { ptr, ptr, ptr, %struct.SDL_WaylandUserdata }
%struct.SDL_WaylandUserdata = type { i32, ptr }

; Function Attrs: nounwind uwtable
define hidden void @Wayland_data_source_set_callback(ptr noundef %0, ptr noundef %1, ptr noundef %2, i32 noundef %3) #0 {
  %5 = alloca ptr, align 8
  %6 = alloca ptr, align 8
  %7 = alloca ptr, align 8
  %8 = alloca i32, align 4
  store ptr %0, ptr %5, align 8
  store ptr %1, ptr %6, align 8
  store ptr %2, ptr %7, align 8
  store i32 %3, ptr %8, align 4
  %9 = load ptr, ptr %5, align 8
  %10 = icmp ne ptr %9, null
  br i1 %10, label %11, label %23

11:                                               ; preds = %4
  %12 = load ptr, ptr %6, align 8
  %13 = load ptr, ptr %5, align 8
  %14 = getelementptr inbounds nuw %struct.SDL_WaylandDataSource, ptr %13, i32 0, i32 2
  store ptr %12, ptr %14, align 8
  %15 = load i32, ptr %8, align 4
  %16 = load ptr, ptr %5, align 8
  %17 = getelementptr inbounds nuw %struct.SDL_WaylandDataSource, ptr %16, i32 0, i32 3
  %18 = getelementptr inbounds nuw %struct.SDL_WaylandUserdata, ptr %17, i32 0, i32 0
  store i32 %15, ptr %18, align 8
  %19 = load ptr, ptr %7, align 8
  %20 = load ptr, ptr %5, align 8
  %21 = getelementptr inbounds nuw %struct.SDL_WaylandDataSource, ptr %20, i32 0, i32 3
  %22 = getelementptr inbounds nuw %struct.SDL_WaylandUserdata, ptr %21, i32 0, i32 1
  store ptr %19, ptr %22, align 8
  br label %23

23:                                               ; preds = %11, %4
  ret void
}