; Function Attrs: mustprogress nofree norecurse nosync nounwind willreturn memory(argmem: write) uwtable
define hidden void @Wayland_data_source_set_callback(ptr noundef writeonly captures(address_is_null) %0, ptr noundef %1, ptr noundef %2, i32 noundef %3) local_unnamed_addr #3 {
  %.not = icmp eq ptr %0, null
  br i1 %.not, label %9, label %5

5:                                                ; preds = %4
  %6 = getelementptr inbounds nuw i8, ptr %0, i64 16
  store ptr %1, ptr %6, align 8
  %7 = getelementptr inbounds nuw i8, ptr %0, i64 24
  store i32 %3, ptr %7, align 8
  %8 = getelementptr inbounds nuw i8, ptr %0, i64 32
  store ptr %2, ptr %8, align 8
  br label %9

9:                                                ; preds = %5, %4
  ret void
}